target datalayout = "e-m:e-p270:32:32-p271:32:32-p272:64:64-i64:64-i128:128-f80:128-n8:16:32:64-S128"
target triple = "x86_64-pc-linux-gnu"

@H5_libinit_g = external global i8, align 1
@H5_libterm_g = external global i8, align 1
@.str = private unnamed_addr constant [97 x i8] c"generated/home/dtcxzyw/WorkSpace/Projects/compilers/llvm-opt-benchmark/bench/hdf5/hdf5/src/H5A.c\00", align 1
@H5E_FUNC_g = external global i64, align 8
@H5E_CANTINIT_g = external global i64, align 8
@.str.1 = private unnamed_addr constant [30 x i8] c"library initialization failed\00", align 1
@H5E_CANTSET_g = external global i64, align 8
@.str.2 = private unnamed_addr constant [22 x i8] c"can't set API context\00", align 1
@H5E_ATTR_g = external global i64, align 8
@H5E_CANTCREATE_g = external global i64, align 8
@.str.3 = private unnamed_addr constant [41 x i8] c"unable to synchronously create attribute\00", align 1
@__func__.H5Acreate_by_name = private unnamed_addr constant [18 x i8] c"H5Acreate_by_name\00", align 1

; Function Attrs: nounwind uwtable
define i64 @H5Acreate_by_name(i64 noundef %0, ptr noundef %1, ptr noundef %2, i64 noundef %3, i64 noundef %4, i64 noundef %5, i64 noundef %6, i64 noundef %7) #0 {
  %9 = alloca i64, align 8
  %10 = alloca ptr, align 8
  %11 = alloca ptr, align 8
  %12 = alloca i64, align 8
  %13 = alloca i64, align 8
  %14 = alloca i64, align 8
  %15 = alloca i64, align 8
  %16 = alloca i64, align 8
  %17 = alloca i64, align 8
  %18 = alloca i8, align 1
  %19 = alloca i8, align 1
  store i64 %0, ptr %9, align 8
  store ptr %1, ptr %10, align 8
  store ptr %2, ptr %11, align 8
  store i64 %3, ptr %12, align 8
  store i64 %4, ptr %13, align 8
  store i64 %5, ptr %14, align 8
  store i64 %6, ptr %15, align 8
  store i64 %7, ptr %16, align 8
  store i64 -1, ptr %17, align 8
  store i8 0, ptr %18, align 1
  store i8 0, ptr %19, align 1
  %20 = load i8, ptr @H5_libinit_g, align 1
  %21 = trunc i8 %20 to i1
  br i1 %21, label %26, label %22

22:                                               ; preds = %8
  %23 = load i8, ptr @H5_libterm_g, align 1
  %24 = trunc i8 %23 to i1
  %25 = xor i1 %24, true
  br label %26

26:                                               ; preds = %22, %8
  %27 = phi i1 [ false, %8 ], [ %25, %22 ]
  %28 = xor i1 %27, true
  %29 = xor i1 %28, true
  %30 = zext i1 %29 to i32
  %31 = sext i32 %30 to i64
  %32 = icmp ne i64 %31, 0
  br i1 %32, label %33, label %57

33:                                               ; preds = %26
  %34 = call i32 @H5_init_library()
  %35 = icmp slt i32 %34, 0
  %36 = xor i1 %35, true
  %37 = xor i1 %36, true
  %38 = zext i1 %37 to i32
  %39 = sext i32 %38 to i64
  %40 = icmp ne i64 %39, 0
  br i1 %40, label %41, label %56

41:                                               ; preds = %33
  br label %42

42:                                               ; preds = %41
  br label %43

43:                                               ; preds = %42
  br label %44

44:                                               ; preds = %43
  %45 = load i64, ptr @H5E_FUNC_g, align 8
  %46 = load i64, ptr @H5E_CANTINIT_g, align 8
  %47 = call i32 (ptr, ptr, i32, i64, i64, ptr, ...) @H5E_printf_stack(ptr noundef @.str, ptr noundef @__func__.H5Acreate_by_name, i32 noundef 371, i64 noundef %45, i64 noundef %46, ptr noundef @.str.1)
  br label %48

48:                                               ; preds = %44
  store i8 1, ptr %19, align 1
  %49 = load i8, ptr %19, align 1
  %50 = trunc i8 %49 to i1
  %51 = zext i1 %50 to i8
  store i8 %51, ptr %19, align 1
  br label %52

52:                                               ; preds = %48
  br label %53

53:                                               ; preds = %52
  store i64 -1, ptr %17, align 8
  br label %109

54:                                               ; No predecessors!
  br label %55

55:                                               ; preds = %54
  br label %56

56:                                               ; preds = %55, %33
  br label %57

57:                                               ; preds = %56, %26
  %58 = call i32 @H5CX_push()
  %59 = icmp slt i32 %58, 0
  %60 = xor i1 %59, true
  %61 = xor i1 %60, true
  %62 = zext i1 %61 to i32
  %63 = sext i32 %62 to i64
  %64 = icmp ne i64 %63, 0
  br i1 %64, label %65, label %80

65:                                               ; preds = %57
  br label %66

66:                                               ; preds = %65
  br label %67

67:                                               ; preds = %66
  br label %68

68:                                               ; preds = %67
  %69 = load i64, ptr @H5E_FUNC_g, align 8
  %70 = load i64, ptr @H5E_CANTSET_g, align 8
  %71 = call i32 (ptr, ptr, i32, i64, i64, ptr, ...) @H5E_printf_stack(ptr noundef @.str, ptr noundef @__func__.H5Acreate_by_name, i32 noundef 371, i64 noundef %69, i64 noundef %70, ptr noundef @.str.2)
  br label %72

72:                                               ; preds = %68
  store i8 1, ptr %19, align 1
  %73 = load i8, ptr %19, align 1
  %74 = trunc i8 %73 to i1
  %75 = zext i1 %74 to i8
  store i8 %75, ptr %19, align 1
  br label %76

76:                                               ; preds = %72
  br label %77

77:                                               ; preds = %76
  store i64 -1, ptr %17, align 8
  br label %109

78:                                               ; No predecessors!
  br label %79

79:                                               ; preds = %78
  br label %81

80:                                               ; preds = %57
  store i8 1, ptr %18, align 1
  br label %81

81:                                               ; preds = %80, %79
  %82 = call i32 @H5E_clear_stack()
  %83 = load i64, ptr %9, align 8
  %84 = load ptr, ptr %10, align 8
  %85 = load ptr, ptr %11, align 8
  %86 = load i64, ptr %12, align 8
  %87 = load i64, ptr %13, align 8
  %88 = load i64, ptr %14, align 8
  %89 = load i64, ptr %15, align 8
  %90 = load i64, ptr %16, align 8
  %91 = call i64 @H5A__create_by_name_api_common(i64 noundef %83, ptr noundef %84, ptr noundef %85, i64 noundef %86, i64 noundef %87, i64 noundef %88, i64 noundef %89, i64 noundef %90, ptr noundef null, ptr noundef null)
  store i64 %91, ptr %17, align 8
  %92 = icmp slt i64 %91, 0
  br i1 %92, label %93, label %108

93:                                               ; preds = %81
  br label %94

94:                                               ; preds = %93
  br label %95

95:                                               ; preds = %94
  br label %96

96:                                               ; preds = %95
  %97 = load i64, ptr @H5E_ATTR_g, align 8
  %98 = load i64, ptr @H5E_CANTCREATE_g, align 8
  %99 = call i32 (ptr, ptr, i32, i64, i64, ptr, ...) @H5E_printf_stack(ptr noundef @.str, ptr noundef @__func__.H5Acreate_by_name, i32 noundef 376, i64 noundef %97, i64 noundef %98, ptr noundef @.str.3)
  br label %100

100:                                              ; preds = %96
  store i8 1, ptr %19, align 1
  %101 = load i8, ptr %19, align 1
  %102 = trunc i8 %101 to i1
  %103 = zext i1 %102 to i8
  store i8 %103, ptr %19, align 1
  br label %104

104:                                              ; preds = %100
  br label %105

105:                                              ; preds = %104
  store i64 -1, ptr %17, align 8
  br label %109

106:                                              ; No predecessors!
  br label %107

107:                                              ; preds = %106
  br label %108

108:                                              ; preds = %107, %81
  br label %109

109:                                              ; preds = %108, %105, %77, %53
  %110 = load i8, ptr %18, align 1
  %111 = trunc i8 %110 to i1
  %112 = xor i1 %111, true
  %113 = xor i1 %112, true
  %114 = zext i1 %113 to i32
  %115 = sext i32 %114 to i64
  %116 = icmp ne i64 %115, 0
  br i1 %116, label %117, label %119

117:                                              ; preds = %109
  %118 = call i32 @H5CX_pop(i1 noundef zeroext true)
  store i8 0, ptr %18, align 1
  br label %119

119:                                              ; preds = %117, %109
  %120 = load i8, ptr %19, align 1
  %121 = trunc i8 %120 to i1
  %122 = xor i1 %121, true
  %123 = xor i1 %122, true
  %124 = zext i1 %123 to i32
  %125 = sext i32 %124 to i64
  %126 = icmp ne i64 %125, 0
  br i1 %126, label %127, label %129

127:                                              ; preds = %119
  %128 = call i32 @H5E_dump_api_stack()
  br label %129

129:                                              ; preds = %127, %119
  %130 = load i64, ptr %17, align 8
  ret i64 %130
}