; Function Attrs: nounwind uwtable
define range(i64 -1, -9223372036854775808) i64 @H5Acreate_by_name(i64 noundef %0, ptr noundef %1, ptr noundef %2, i64 noundef %3, i64 noundef %4, i64 noundef %5, i64 noundef %6, i64 noundef %7) local_unnamed_addr #0 {
  %9 = load i8, ptr @H5_libinit_g, align 1
  %10 = trunc i8 %9 to i1
  %11 = load i8, ptr @H5_libterm_g, align 1
  %12 = trunc i8 %11 to i1
  %13 = select i1 %10, i1 true, i1 %12
  br i1 %13, label %21, label %14

14:                                               ; preds = %8
  %15 = tail call i32 @H5_init_library() #4
  %16 = icmp slt i32 %15, 0
  br i1 %16, label %17, label %21

17:                                               ; preds = %14
  %18 = load i64, ptr @H5E_FUNC_g, align 8
  %19 = load i64, ptr @H5E_CANTINIT_g, align 8
  %20 = tail call i32 (ptr, ptr, i32, i64, i64, ptr, ...) @H5E_printf_stack(ptr noundef nonnull @.str, ptr noundef nonnull @__func__.H5Acreate_by_name, i32 noundef 371, i64 noundef %18, i64 noundef %19, ptr noundef nonnull @.str.1) #4
  br label %.thread24

21:                                               ; preds = %14, %8
  %22 = tail call i32 @H5CX_push() #4
  %23 = icmp slt i32 %22, 0
  br i1 %23, label %24, label %28

24:                                               ; preds = %21
  %25 = load i64, ptr @H5E_FUNC_g, align 8
  %26 = load i64, ptr @H5E_CANTSET_g, align 8
  %27 = tail call i32 (ptr, ptr, i32, i64, i64, ptr, ...) @H5E_printf_stack(ptr noundef nonnull @.str, ptr noundef nonnull @__func__.H5Acreate_by_name, i32 noundef 371, i64 noundef %25, i64 noundef %26, ptr noundef nonnull @.str.2) #4
  br label %.thread24

28:                                               ; preds = %21
  %29 = tail call i32 @H5E_clear_stack() #4
  %30 = tail call fastcc i64 @H5A__create_by_name_api_common(i64 noundef %0, ptr noundef %1, ptr noundef %2, i64 noundef %3, i64 noundef %4, i64 noundef %5, i64 noundef %6, i64 noundef %7, ptr noundef null, ptr noundef null)
  %31 = icmp slt i64 %30, 0
  br i1 %31, label %.thread29, label %36

.thread29:                                        ; preds = %28
  %32 = load i64, ptr @H5E_ATTR_g, align 8
  %33 = load i64, ptr @H5E_CANTCREATE_g, align 8
  %34 = tail call i32 (ptr, ptr, i32, i64, i64, ptr, ...) @H5E_printf_stack(ptr noundef nonnull @.str, ptr noundef nonnull @__func__.H5Acreate_by_name, i32 noundef 376, i64 noundef %32, i64 noundef %33, ptr noundef nonnull @.str.3) #4
  %35 = tail call i32 @H5CX_pop(i1 noundef zeroext true) #4
  br label %.thread24

36:                                               ; preds = %28
  %37 = tail call i32 @H5CX_pop(i1 noundef zeroext true) #4
  br label %39

.thread24:                                        ; preds = %24, %17, %.thread29
  %38 = tail call i32 @H5E_dump_api_stack() #4
  br label %39

39:                                               ; preds = %36, %.thread24
  %.0141927 = phi i64 [ -1, %.thread24 ], [ %30, %36 ]
  ret i64 %.0141927
}